; Function Attrs: mustprogress uwtable
define dso_local noundef i32 @_Z17luaL_checkintegerP9lua_Statei(ptr noundef %0, i32 noundef %1) local_unnamed_addr #2 {
  %3 = alloca i32, align 4
  %4 = call noundef i32 @_Z14lua_tointegerxP9lua_StateiPi(ptr noundef %0, i32 noundef %1, ptr noundef nonnull %3)
  %5 = load i32, ptr %3, align 4
  %.not = icmp eq i32 %5, 0
  br i1 %.not, label %6, label %7

6:                                                ; preds = %2
  call fastcc void @_ZL9tag_errorP9lua_Stateii(ptr noundef %0, i32 noundef %1, i32 noundef 3) #11
  unreachable

7:                                                ; preds = %2
  ret i32 %4
}